target datalayout = "e-m:e-p270:32:32-p271:32:32-p272:64:64-i64:64-i128:128-f80:128-n8:16:32:64-S128"
target triple = "x86_64-pc-linux-gnu"

@hf_winsrepl_owner_address = internal global i32 0, align 4
@hf_winsrepl_owner_max_version = internal global i32 0, align 4
@hf_winsrepl_owner_min_version = internal global i32 0, align 4
@hf_winsrepl_owner_type = internal global i32 0, align 4
@ett_winsrepl_owner = internal global i32 0, align 4
@.str.134 = private unnamed_addr constant [16 x i8] c"WINS Owner [%u]\00", align 1
@.str.135 = private unnamed_addr constant [11 x i8] c"WINS Owner\00", align 1

; Function Attrs: null_pointer_is_valid sspstrong uwtable
define internal i32 @dissect_winsrepl_wins_owner(ptr noundef %0, ptr noundef %1, i32 noundef %2, ptr noundef %3, ptr noundef %4, i32 noundef %5) #0 {
  %7 = alloca ptr, align 8
  %8 = alloca ptr, align 8
  %9 = alloca i32, align 4
  %10 = alloca ptr, align 8
  %11 = alloca ptr, align 8
  %12 = alloca i32, align 4
  %13 = alloca ptr, align 8
  store ptr %0, ptr %7, align 8
  store ptr %1, ptr %8, align 8
  store i32 %2, ptr %9, align 4
  store ptr %3, ptr %10, align 8
  store ptr %4, ptr %11, align 8
  store i32 %5, ptr %12, align 4
  call void @llvm.lifetime.start.p0(i64 8, ptr %13) #5
  store ptr null, ptr %13, align 8
  %14 = load ptr, ptr %11, align 8
  %15 = icmp ne ptr %14, null
  br i1 %15, label %16, label %23

16:                                               ; preds = %6
  %17 = load ptr, ptr %11, align 8
  %18 = load ptr, ptr %7, align 8
  %19 = load i32, ptr %9, align 4
  %20 = load i32, ptr @ett_winsrepl_owner, align 4
  %21 = load i32, ptr %12, align 4
  %22 = call ptr (ptr, ptr, i32, i32, i32, ptr, ptr, ...) @proto_tree_add_subtree_format(ptr noundef %17, ptr noundef %18, i32 noundef %19, i32 noundef 24, i32 noundef %20, ptr noundef null, ptr noundef @.str.134, i32 noundef %21)
  store ptr %22, ptr %13, align 8
  br label %33

23:                                               ; preds = %6
  %24 = load ptr, ptr %10, align 8
  %25 = icmp ne ptr %24, null
  br i1 %25, label %26, label %32

26:                                               ; preds = %23
  %27 = load ptr, ptr %10, align 8
  %28 = load ptr, ptr %7, align 8
  %29 = load i32, ptr %9, align 4
  %30 = load i32, ptr @ett_winsrepl_owner, align 4
  %31 = call ptr @proto_tree_add_subtree(ptr noundef %27, ptr noundef %28, i32 noundef %29, i32 noundef 24, i32 noundef %30, ptr noundef null, ptr noundef @.str.135)
  store ptr %31, ptr %13, align 8
  br label %32

32:                                               ; preds = %26, %23
  br label %33

33:                                               ; preds = %32, %16
  %34 = load ptr, ptr %13, align 8
  %35 = load i32, ptr @hf_winsrepl_owner_address, align 4
  %36 = load ptr, ptr %7, align 8
  %37 = load i32, ptr %9, align 4
  %38 = call ptr @proto_tree_add_item(ptr noundef %34, i32 noundef %35, ptr noundef %36, i32 noundef %37, i32 noundef 4, i32 noundef 0)
  %39 = load i32, ptr %9, align 4
  %40 = add i32 %39, 4
  store i32 %40, ptr %9, align 4
  %41 = load ptr, ptr %13, align 8
  %42 = load i32, ptr @hf_winsrepl_owner_max_version, align 4
  %43 = load ptr, ptr %7, align 8
  %44 = load i32, ptr %9, align 4
  %45 = call ptr @proto_tree_add_item(ptr noundef %41, i32 noundef %42, ptr noundef %43, i32 noundef %44, i32 noundef 8, i32 noundef 0)
  %46 = load i32, ptr %9, align 4
  %47 = add i32 %46, 8
  store i32 %47, ptr %9, align 4
  %48 = load ptr, ptr %13, align 8
  %49 = load i32, ptr @hf_winsrepl_owner_min_version, align 4
  %50 = load ptr, ptr %7, align 8
  %51 = load i32, ptr %9, align 4
  %52 = call ptr @proto_tree_add_item(ptr noundef %48, i32 noundef %49, ptr noundef %50, i32 noundef %51, i32 noundef 8, i32 noundef 0)
  %53 = load i32, ptr %9, align 4
  %54 = add i32 %53, 8
  store i32 %54, ptr %9, align 4
  %55 = load ptr, ptr %13, align 8
  %56 = load i32, ptr @hf_winsrepl_owner_type, align 4
  %57 = load ptr, ptr %7, align 8
  %58 = load i32, ptr %9, align 4
  %59 = call ptr @proto_tree_add_item(ptr noundef %55, i32 noundef %56, ptr noundef %57, i32 noundef %58, i32 noundef 4, i32 noundef 0)
  %60 = load i32, ptr %9, align 4
  %61 = add i32 %60, 4
  store i32 %61, ptr %9, align 4
  %62 = load i32, ptr %9, align 4
  call void @llvm.lifetime.end.p0(i64 8, ptr %13) #5
  ret i32 %62
}