; Function Attrs: null_pointer_is_valid sspstrong uwtable
define internal fastcc noundef i32 @dissect_winsrepl_wins_owner(ptr noundef %0, i32 noundef %1, ptr noundef %2, ptr noundef %3, i32 noundef %4) unnamed_addr #0 {
  %.not = icmp eq ptr %3, null
  br i1 %.not, label %9, label %6

6:                                                ; preds = %5
  %7 = load i32, ptr @ett_winsrepl_owner, align 4
  %8 = tail call ptr (ptr, ptr, i32, i32, i32, ptr, ptr, ...) @proto_tree_add_subtree_format(ptr noundef nonnull %3, ptr noundef %0, i32 noundef %1, i32 noundef 24, i32 noundef %7, ptr noundef null, ptr noundef nonnull @.str.134, i32 noundef %4)
  br label %13

9:                                                ; preds = %5
  %.not27 = icmp eq ptr %2, null
  br i1 %.not27, label %13, label %10

10:                                               ; preds = %9
  %11 = load i32, ptr @ett_winsrepl_owner, align 4
  %12 = tail call ptr @proto_tree_add_subtree(ptr noundef nonnull %2, ptr noundef %0, i32 noundef %1, i32 noundef 24, i32 noundef %11, ptr noundef null, ptr noundef nonnull @.str.135)
  br label %13

13:                                               ; preds = %9, %10, %6
  %.0 = phi ptr [ %8, %6 ], [ %12, %10 ], [ null, %9 ]
  %14 = load i32, ptr @hf_winsrepl_owner_address, align 4
  %15 = tail call ptr @proto_tree_add_item(ptr noundef %.0, i32 noundef %14, ptr noundef %0, i32 noundef %1, i32 noundef 4, i32 noundef 0)
  %16 = add i32 %1, 4
  %17 = load i32, ptr @hf_winsrepl_owner_max_version, align 4
  %18 = tail call ptr @proto_tree_add_item(ptr noundef %.0, i32 noundef %17, ptr noundef %0, i32 noundef %16, i32 noundef 8, i32 noundef 0)
  %19 = add i32 %1, 12
  %20 = load i32, ptr @hf_winsrepl_owner_min_version, align 4
  %21 = tail call ptr @proto_tree_add_item(ptr noundef %.0, i32 noundef %20, ptr noundef %0, i32 noundef %19, i32 noundef 8, i32 noundef 0)
  %22 = add i32 %1, 20
  %23 = load i32, ptr @hf_winsrepl_owner_type, align 4
  %24 = tail call ptr @proto_tree_add_item(ptr noundef %.0, i32 noundef %23, ptr noundef %0, i32 noundef %22, i32 noundef 4, i32 noundef 0)
  %25 = add i32 %1, 24
  ret i32 %25
}